Certificate:
    Data:
        Version: 3 (0x2)
        Serial Number:
            a4:1b:7e:8b:69:d3:2e:fd
    Signature Algorithm: sha256WithRSAEncryption
        Issuer: C = BR, O = PKI Brazil, OU = PKI Ruler for All Cats, CN = Common Name for All Cats Root CA
        Validity
            Not Before: Aug 26 19:35:15 2020 GMT
            Not After : Aug 26 19:35:15 2030 GMT
        Subject: C = BR, O = PKI Brazil, OU = PKI Ruler for All Cats, CN = Common Name for All Cats Root CA
        Subject Public Key Info:
            Public Key Algorithm: rsaEncryption
                Public-Key: (2048 bit)
                Modulus:
                    00:bc:6a:f9:ec:ea:94:b4:55:4f:e3:da:57:d9:46:
                    27:c4:3f:9b:39:26:b7:79:47:87:40:fc:be:bd:4b:
                    67:bc:f3:51:34:9e:e8:86:53:75:7c:b4:8e:70:88:
                    d0:38:cc:c3:f7:66:a9:d4:81:b0:03:a2:e1:9c:30:
                    bb:75:97:f2:80:ab:53:94:ec:c3:17:5b:52:8f:21:
                    72:ed:cb:77:15:d3:df:38:a5:0b:78:24:22:b4:ca:
                    87:ed:7d:c5:bf:d0:88:84:f8:2e:17:d8:11:17:a8:
                    d5:11:92:33:bf:eb:3d:83:e9:b4:ea:40:ad:84:d9:
                    30:f2:fa:40:5f:c2:aa:6f:f4:54:5d:d0:2c:38:e9:
                    db:50:ae:c4:1f:c8:5e:df:3a:e9:6a:cf:c8:6f:be:
                    20:7e:79:b0:60:39:2d:ef:ee:a1:d9:15:56:65:ec:
                    78:2d:29:9f:14:9d:cb:78:92:b0:32:89:29:3f:89:
                    49:88:7e:98:37:b3:93:46:66:8e:45:1e:3c:86:1e:
                    1c:bb:b0:d0:d6:31:64:47:0d:b4:ac:cd:b9:10:35:
                    e8:2d:90:41:4c:c3:4e:88:73:89:9c:f5:8e:3b:c4:
                    d7:92:e9:3f:11:ae:e7:84:ca:9c:48:bc:de:73:40:
                    83:3d:35:40:50:cd:0d:f2:34:7f:0a:38:82:a4:a2:
                    ff:25
                Exponent: 65537 (0x10001)
        X509v3 extensions:
            X509v3 Subject Key Identifier: 
                82:2B:54:06:1D:4C:6A:47:BE:4E:3B:28:41:8B:FF:25:2E:36:7B:67
            X509v3 Authority Key Identifier: 
                keyid:82:2B:54:06:1D:4C:6A:47:BE:4E:3B:28:41:8B:FF:25:2E:36:7B:67
                DirName:/C=BR/O=PKI Brazil/OU=PKI Ruler for All Cats/CN=Common Name for All Cats Root CA
                serial:A4:1B:7E:8B:69:D3:2E:FD

            X509v3 Basic Constraints: 
                CA:TRUE
            X509v3 Key Usage: 
                Certificate Sign, CRL Sign
            X509v3 CRL Distribution Points: 

                Full Name:
                  URI:http://localhost/ac/root.crl

    Signature Algorithm: sha256WithRSAEncryption
         7c:32:9c:d3:8e:f4:54:56:59:48:6d:e5:03:e3:a2:1e:7d:4a:
         53:62:1e:03:57:f8:da:a6:95:b3:41:2e:8a:d1:5e:92:d6:68:
         4e:17:48:1a:dd:69:d5:55:ba:c8:8a:13:74:47:6f:29:cc:6e:
         35:12:b2:a9:bd:2d:b9:9e:9b:fc:e1:1d:30:6b:32:79:03:07:
         a9:b2:b2:b5:53:50:d8:38:c4:1b:40:95:17:b5:69:9e:b8:2d:
         66:8e:ae:fb:85:d1:62:12:4d:5f:02:37:c0:43:3a:d5:4b:da:
         95:83:1e:37:a9:1e:10:e4:f2:f9:7d:07:42:dc:c8:65:28:47:
         32:5d:22:17:08:e8:d7:38:13:5c:0f:67:f7:ac:11:03:20:60:
         5d:c9:94:b0:54:9a:3d:3d:a0:1f:32:c5:7f:36:e9:9b:2f:b7:
         53:dc:e7:6e:9e:32:e7:28:d6:1a:74:22:71:c8:3c:43:46:5c:
         09:4d:70:68:86:16:36:00:cb:59:c8:68:c4:d3:b7:5a:ab:da:
         7e:a0:25:f6:74:e8:15:34:6e:71:3f:cb:3b:48:c9:64:89:c0:
         5c:02:5c:78:d1:53:63:12:42:be:e3:66:bd:93:ae:cf:7f:27:
         e2:5f:3b:bc:c5:1d:fb:58:98:24:7c:ef:ca:9d:fb:03:3a:c7:
         2b:a5:0c:5d
-----BEGIN CERTIFICATE-----
MIIEcTCCA1mgAwIBAgIJAKQbfotp0y79MA0GCSqGSIb3DQEBCwUAMG4xCzAJBgNV
BAYTAkJSMRMwEQYDVQQKEwpQS0kgQnJhemlsMR8wHQYDVQQLExZQS0kgUnVsZXIg
Zm9yIEFsbCBDYXRzMSkwJwYDVQQDEyBDb21tb24gTmFtZSBmb3IgQWxsIENhdHMg
Um9vdCBDQTAeFw0yMDA4MjYxOTM1MTVaFw0zMDA4MjYxOTM1MTVaMG4xCzAJBgNV
BAYTAkJSMRMwEQYDVQQKEwpQS0kgQnJhemlsMR8wHQYDVQQLExZQS0kgUnVsZXIg
Zm9yIEFsbCBDYXRzMSkwJwYDVQQDEyBDb21tb24gTmFtZSBmb3IgQWxsIENhdHMg
Um9vdCBDQTCCASIwDQYJKoZIhvcNAQEBBQADggEPADCCAQoCggEBALxq+ezqlLRV
T+PaV9lGJ8Q/mzkmt3lHh0D8vr1LZ7zzUTSe6IZTdXy0jnCI0DjMw/dmqdSBsAOi
4Zwwu3WX8oCrU5TswxdbUo8hcu3LdxXT3zilC3gkIrTKh+19xb/QiIT4LhfYEReo
1RGSM7/rPYPptOpArYTZMPL6QF/Cqm/0VF3QLDjp21CuxB/IXt866WrPyG++IH55
sGA5Le/uodkVVmXseC0pnxSdy3iSsDKJKT+JSYh+mDezk0ZmjkUePIYeHLuw0NYx
ZEcNtKzNuRA16C2QQUzDTohziZz1jjvE15LpPxGu54TKnEi83nNAgz01QFDNDfI0
fwo4gqSi/yUCAwEAAaOCARAwggEMMB0GA1UdDgQWBBSCK1QGHUxqR75OOyhBi/8l
LjZ7ZzCBoAYDVR0jBIGYMIGVgBSCK1QGHUxqR75OOyhBi/8lLjZ7Z6FypHAwbjEL
MAkGA1UEBhMCQlIxEzARBgNVBAoTClBLSSBCcmF6aWwxHzAdBgNVBAsTFlBLSSBS
dWxlciBmb3IgQWxsIENhdHMxKTAnBgNVBAMTIENvbW1vbiBOYW1lIGZvciBBbGwg
Q2F0cyBSb290IENBggkApBt+i2nTLv0wDAYDVR0TBAUwAwEB/zALBgNVHQ8EBAMC
AQYwLQYDVR0fBCYwJDAioCCgHoYcaHR0cDovL2xvY2FsaG9zdC9hYy9yb290LmNy
bDANBgkqhkiG9w0BAQsFAAOCAQEAfDKc0470VFZZSG3lA+OiHn1KU2IeA1f42qaV
s0EuitFektZoThdIGt1p1VW6yIoTdEdvKcxuNRKyqb0tuZ6b/OEdMGsyeQMHqbKy
tVNQ2DjEG0CVF7VpnrgtZo6u+4XRYhJNXwI3wEM61UvalYMeN6keEOTy+X0HQtzI
ZShHMl0iFwjo1zgTXA9n96wRAyBgXcmUsFSaPT2gHzLFfzbpmy+3U9znbp4y5yjW
GnQiccg8Q0ZcCU1waIYWNgDLWchoxNO3WqvafqAl9nToFTRucT/LO0jJZInAXAJc
eNFTYxJCvuNmvZOuz38n4l87vMUd+1iYJHzvyp37AzrHK6UMXQ==
-----END CERTIFICATE-----
