Certificate:
    Data:
        Version: 3 (0x2)
        Serial Number: 0 (0x0)
    Signature Algorithm: sha256WithRSAEncryption
        Issuer: C=BR, O=PKI Brazil, OU=PKI Ruler for All Cats, CN=Common Name for All Cats Intermediate CA
        Validity
            Not Before: Aug 26 19:35:16 2020 GMT
            Not After : Aug 24 19:35:16 2030 GMT
        Subject: C=BR, O=PKI Brazil, OU=PKI Ruler for All Cats, CN=Common Name for All Cats End User CA
        Subject Public Key Info:
            Public Key Algorithm: rsaEncryption
                Public-Key: (2048 bit)
                Modulus:
                    00:d8:d8:c6:72:a5:91:7f:15:97:8f:05:07:b4:3c:
                    6e:c6:11:ca:22:7c:dc:4a:36:7f:ba:b5:08:af:51:
                    8e:5f:d2:b7:6f:7e:46:41:bb:78:6c:9b:32:c4:67:
                    7b:66:c3:6d:94:a4:3d:da:f1:50:22:29:0d:4b:ef:
                    74:1b:2e:f9:62:16:e3:3f:bc:68:c9:17:09:21:62:
                    00:14:29:8b:84:2a:5a:d5:5e:60:5b:d1:96:2f:52:
                    c3:4b:c4:d7:95:8d:ce:8b:16:ed:f3:4d:19:3d:25:
                    35:63:ae:8f:c2:d4:83:3f:35:03:fd:17:29:65:ed:
                    1d:42:5c:88:dc:e9:b1:f9:7b:da:be:31:4d:bb:60:
                    7a:d3:0e:b2:1e:ae:7a:32:ad:cb:20:9f:3f:39:d4:
                    0d:99:82:5e:fe:45:f1:28:99:09:c0:96:74:77:c0:
                    b5:dd:05:e6:2e:ab:77:38:a8:c2:81:d5:81:e9:ab:
                    34:e3:20:03:3b:4b:6e:ac:6c:fc:6a:88:3a:21:6c:
                    66:2c:69:38:9e:8a:e9:ed:93:ec:06:51:7c:84:53:
                    57:d9:ee:df:3f:e0:c3:a8:85:e8:0f:fd:be:c0:e5:
                    52:58:fe:9b:e6:bf:c5:e5:f5:70:51:da:9d:61:0f:
                    0d:07:81:7c:82:71:c3:6c:29:c3:cc:86:05:0f:c5:
                    d4:e9
                Exponent: 65537 (0x10001)
        X509v3 extensions:
            X509v3 Subject Key Identifier: 
                AF:57:31:FE:8F:B4:79:EF:87:B9:70:7E:4A:F7:D9:40:8E:13:16:CF
            X509v3 Authority Key Identifier: 
                keyid:46:9D:04:81:5D:B0:9F:26:8F:CF:0E:46:43:09:A1:13:12:14:05:E4
                DirName:/C=BR/O=PKI Brazil/OU=PKI Ruler for All Cats/CN=Common Name for All Cats Root CA
                serial:00

            X509v3 Basic Constraints: 
                CA:TRUE
            X509v3 Key Usage: 
                Certificate Sign, CRL Sign
            X509v3 CRL Distribution Points: 

                Full Name:
                  URI:http://localhost/ac/end.crl

    Signature Algorithm: sha256WithRSAEncryption
         81:02:61:11:ad:46:84:e4:82:7c:82:73:df:0e:a4:70:aa:64:
         38:76:00:85:6d:91:c4:b8:b8:d8:51:64:ef:5b:eb:d5:1f:0a:
         be:21:1e:38:6f:68:f5:11:e6:16:7f:c0:d4:cf:51:ce:ce:b5:
         a5:94:e8:35:22:24:bc:aa:2b:a2:b2:b4:4e:f4:30:56:21:62:
         1d:4c:29:04:be:13:42:7e:5c:27:e2:34:60:40:32:88:8a:40:
         df:fa:72:2b:d4:c7:4b:4e:7e:78:1f:17:03:e1:cf:d1:9e:4f:
         60:b5:e0:25:6a:25:4f:0c:a0:dc:3c:69:fe:77:07:cc:75:86:
         ee:c7:94:73:6c:bc:01:77:0e:fa:44:5d:4c:ea:f0:3d:67:35:
         52:b1:68:cf:63:87:b8:3b:5b:ef:5d:82:d4:14:7d:e9:c0:1b:
         f5:c3:98:10:59:9c:ec:45:8e:e4:0e:68:bb:fa:e1:30:fe:84:
         10:46:6a:24:98:ab:b4:81:b5:45:50:db:17:d4:93:ba:6e:d4:
         70:e5:06:87:9c:4a:02:38:15:2e:84:92:ea:24:c5:a4:35:50:
         af:07:62:53:ca:c8:64:b2:c0:0b:03:d7:6e:59:b8:5d:41:bb:
         01:93:d4:1d:45:8c:b7:b4:a2:85:f8:53:de:2f:7b:c2:71:6c:
         cf:42:f9:a8
-----BEGIN CERTIFICATE-----
MIIEbDCCA1SgAwIBAgIBADANBgkqhkiG9w0BAQsFADB2MQswCQYDVQQGEwJCUjET
MBEGA1UEChMKUEtJIEJyYXppbDEfMB0GA1UECxMWUEtJIFJ1bGVyIGZvciBBbGwg
Q2F0czExMC8GA1UEAxMoQ29tbW9uIE5hbWUgZm9yIEFsbCBDYXRzIEludGVybWVk
aWF0ZSBDQTAeFw0yMDA4MjYxOTM1MTZaFw0zMDA4MjQxOTM1MTZaMHIxCzAJBgNV
BAYTAkJSMRMwEQYDVQQKEwpQS0kgQnJhemlsMR8wHQYDVQQLExZQS0kgUnVsZXIg
Zm9yIEFsbCBDYXRzMS0wKwYDVQQDEyRDb21tb24gTmFtZSBmb3IgQWxsIENhdHMg
RW5kIFVzZXIgQ0EwggEiMA0GCSqGSIb3DQEBAQUAA4IBDwAwggEKAoIBAQDY2MZy
pZF/FZePBQe0PG7GEcoifNxKNn+6tQivUY5f0rdvfkZBu3hsmzLEZ3tmw22UpD3a
8VAiKQ1L73QbLvliFuM/vGjJFwkhYgAUKYuEKlrVXmBb0ZYvUsNLxNeVjc6LFu3z
TRk9JTVjro/C1IM/NQP9Fyll7R1CXIjc6bH5e9q+MU27YHrTDrIernoyrcsgnz85
1A2Zgl7+RfEomQnAlnR3wLXdBeYuq3c4qMKB1YHpqzTjIAM7S26sbPxqiDohbGYs
aTieiuntk+wGUXyEU1fZ7t8/4MOohegP/b7A5VJY/pvmv8Xl9XBR2p1hDw0HgXyC
ccNsKcPMhgUPxdTpAgMBAAGjggEHMIIBAzAdBgNVHQ4EFgQUr1cx/o+0ee+HuXB+
SvfZQI4TFs8wgZgGA1UdIwSBkDCBjYAURp0EgV2wnyaPzw5GQwmhExIUBeShcqRw
MG4xCzAJBgNVBAYTAkJSMRMwEQYDVQQKEwpQS0kgQnJhemlsMR8wHQYDVQQLExZQ
S0kgUnVsZXIgZm9yIEFsbCBDYXRzMSkwJwYDVQQDEyBDb21tb24gTmFtZSBmb3Ig
QWxsIENhdHMgUm9vdCBDQYIBADAMBgNVHRMEBTADAQH/MAsGA1UdDwQEAwIBBjAs
BgNVHR8EJTAjMCGgH6AdhhtodHRwOi8vbG9jYWxob3N0L2FjL2VuZC5jcmwwDQYJ
KoZIhvcNAQELBQADggEBAIECYRGtRoTkgnyCc98OpHCqZDh2AIVtkcS4uNhRZO9b
69UfCr4hHjhvaPUR5hZ/wNTPUc7OtaWU6DUiJLyqK6KytE70MFYhYh1MKQS+E0J+
XCfiNGBAMoiKQN/6civUx0tOfngfFwPhz9GeT2C14CVqJU8MoNw8af53B8x1hu7H
lHNsvAF3DvpEXUzq8D1nNVKxaM9jh7g7W+9dgtQUfenAG/XDmBBZnOxFjuQOaLv6
4TD+hBBGaiSYq7SBtUVQ2xfUk7pu1HDlBoecSgI4FS6EkuokxaQ1UK8HYlPKyGSy
wAsD125ZuF1BuwGT1B1FjLe0ooX4U94ve8JxbM9C+ag=
-----END CERTIFICATE-----
