Certificate:
    Data:
        Version: 3 (0x2)
        Serial Number: 0 (0x0)
    Signature Algorithm: sha256WithRSAEncryption
        Issuer: C=BR, O=PKI Brazil, OU=PKI Ruler for All Cats, CN=Common Name for All Cats Root CA
        Validity
            Not Before: Aug 26 19:35:16 2020 GMT
            Not After : Aug 25 19:35:16 2030 GMT
        Subject: C=BR, O=PKI Brazil, OU=PKI Ruler for All Cats, CN=Common Name for All Cats Intermediate CA
        Subject Public Key Info:
            Public Key Algorithm: rsaEncryption
                Public-Key: (2048 bit)
                Modulus:
                    00:dc:8d:97:85:f9:74:15:9f:1f:d6:18:a8:54:50:
                    20:c1:65:b4:81:fa:52:f3:e5:62:c4:64:0e:b8:c1:
                    9c:e9:26:23:11:6d:95:50:5d:88:fc:a0:3e:33:b6:
                    6e:c4:7e:c4:e6:4e:0c:4b:5e:17:c9:5a:7d:1c:17:
                    d1:a2:4e:74:94:7c:8b:af:7d:e3:a3:9b:c6:a8:ba:
                    ed:c7:cd:b1:98:47:25:09:23:72:2a:79:26:88:52:
                    4d:f5:ae:5c:3d:2b:a3:cf:f4:12:06:b2:a5:9d:e2:
                    c4:81:a2:a4:b0:bc:5d:e7:85:b8:0a:e9:bb:41:35:
                    4c:6c:ca:90:65:e4:75:4e:77:06:38:7a:e5:9f:a6:
                    75:b5:63:3b:90:35:1b:6e:40:75:fb:86:ad:33:02:
                    39:a5:20:71:50:8a:6d:ee:90:91:6a:e3:43:07:81:
                    b7:23:c5:36:39:78:01:3a:0f:04:e8:1b:17:39:a0:
                    ec:fe:32:5c:0d:40:65:89:eb:3c:55:15:8d:57:98:
                    0a:89:85:4e:dd:05:65:3e:eb:d4:c0:99:b8:98:97:
                    a4:60:4e:f2:d6:df:38:70:c3:9c:ba:60:76:f4:64:
                    12:10:e8:56:c3:36:0c:ee:b5:fe:96:20:8a:bd:49:
                    7a:f8:86:07:80:0b:6a:f8:44:7c:a3:01:a1:a1:a9:
                    f1:f7
                Exponent: 65537 (0x10001)
        X509v3 extensions:
            X509v3 Subject Key Identifier: 
                46:9D:04:81:5D:B0:9F:26:8F:CF:0E:46:43:09:A1:13:12:14:05:E4
            X509v3 Authority Key Identifier: 
                keyid:82:2B:54:06:1D:4C:6A:47:BE:4E:3B:28:41:8B:FF:25:2E:36:7B:67
                DirName:/C=BR/O=PKI Brazil/OU=PKI Ruler for All Cats/CN=Common Name for All Cats Root CA
                serial:A4:1B:7E:8B:69:D3:2E:FD

            X509v3 Basic Constraints: 
                CA:TRUE
            X509v3 Key Usage: 
                Certificate Sign, CRL Sign
            X509v3 CRL Distribution Points: 

                Full Name:
                  URI:http://localhost/ac/inter.crl

    Signature Algorithm: sha256WithRSAEncryption
         29:50:c8:c6:b2:dd:f5:49:21:99:6a:f9:ec:b2:77:9d:7a:7a:
         11:e9:b1:9a:47:76:cc:10:96:41:2d:33:86:30:79:5e:72:d6:
         f4:68:01:d1:d2:32:45:6a:41:01:95:69:62:f8:16:1e:00:20:
         1e:bd:8c:b2:75:85:d2:6e:ec:7d:11:ff:1b:74:6a:40:b9:a3:
         96:37:e8:dd:45:75:35:b9:ed:fa:77:44:17:91:79:36:ec:85:
         b3:82:2d:c3:ea:1b:1b:c1:d2:a4:bb:64:7f:ee:28:29:fa:0e:
         26:a0:ee:d7:92:71:14:a9:ab:b7:85:b5:0e:f3:cf:d4:99:81:
         c8:8e:b5:14:ba:eb:65:b4:40:01:ab:71:b8:45:c0:0f:cd:58:
         bb:61:e2:45:ce:41:d7:f4:46:3e:d8:ba:8f:55:f8:ad:42:96:
         b1:10:c5:bc:d4:f5:63:5e:01:18:17:af:67:00:01:fa:9e:66:
         b8:89:cc:10:95:fb:e2:27:7d:32:dc:2e:15:db:40:35:bf:c2:
         ee:3f:1d:60:df:3e:41:47:17:c9:b2:3e:17:1b:d6:0f:6d:cf:
         38:b0:d3:3f:2e:ed:b9:29:a0:ec:bb:11:5f:3b:c1:4c:00:34:
         52:a1:27:61:ae:f1:68:a8:34:78:46:0d:02:2a:4b:f1:d6:45:
         f2:f6:ff:4f
-----BEGIN CERTIFICATE-----
MIIEcjCCA1qgAwIBAgIBADANBgkqhkiG9w0BAQsFADBuMQswCQYDVQQGEwJCUjET
MBEGA1UEChMKUEtJIEJyYXppbDEfMB0GA1UECxMWUEtJIFJ1bGVyIGZvciBBbGwg
Q2F0czEpMCcGA1UEAxMgQ29tbW9uIE5hbWUgZm9yIEFsbCBDYXRzIFJvb3QgQ0Ew
HhcNMjAwODI2MTkzNTE2WhcNMzAwODI1MTkzNTE2WjB2MQswCQYDVQQGEwJCUjET
MBEGA1UEChMKUEtJIEJyYXppbDEfMB0GA1UECxMWUEtJIFJ1bGVyIGZvciBBbGwg
Q2F0czExMC8GA1UEAxMoQ29tbW9uIE5hbWUgZm9yIEFsbCBDYXRzIEludGVybWVk
aWF0ZSBDQTCCASIwDQYJKoZIhvcNAQEBBQADggEPADCCAQoCggEBANyNl4X5dBWf
H9YYqFRQIMFltIH6UvPlYsRkDrjBnOkmIxFtlVBdiPygPjO2bsR+xOZODEteF8la
fRwX0aJOdJR8i69946Obxqi67cfNsZhHJQkjcip5JohSTfWuXD0ro8/0EgaypZ3i
xIGipLC8XeeFuArpu0E1TGzKkGXkdU53Bjh65Z+mdbVjO5A1G25AdfuGrTMCOaUg
cVCKbe6QkWrjQweBtyPFNjl4AToPBOgbFzmg7P4yXA1AZYnrPFUVjVeYComFTt0F
ZT7r1MCZuJiXpGBO8tbfOHDDnLpgdvRkEhDoVsM2DO61/pYgir1JeviGB4ALavhE
fKMBoaGp8fcCAwEAAaOCAREwggENMB0GA1UdDgQWBBRGnQSBXbCfJo/PDkZDCaET
EhQF5DCBoAYDVR0jBIGYMIGVgBSCK1QGHUxqR75OOyhBi/8lLjZ7Z6FypHAwbjEL
MAkGA1UEBhMCQlIxEzARBgNVBAoTClBLSSBCcmF6aWwxHzAdBgNVBAsTFlBLSSBS
dWxlciBmb3IgQWxsIENhdHMxKTAnBgNVBAMTIENvbW1vbiBOYW1lIGZvciBBbGwg
Q2F0cyBSb290IENBggkApBt+i2nTLv0wDAYDVR0TBAUwAwEB/zALBgNVHQ8EBAMC
AQYwLgYDVR0fBCcwJTAjoCGgH4YdaHR0cDovL2xvY2FsaG9zdC9hYy9pbnRlci5j
cmwwDQYJKoZIhvcNAQELBQADggEBAClQyMay3fVJIZlq+eyyd516ehHpsZpHdswQ
lkEtM4YweV5y1vRoAdHSMkVqQQGVaWL4Fh4AIB69jLJ1hdJu7H0R/xt0akC5o5Y3
6N1FdTW57fp3RBeReTbshbOCLcPqGxvB0qS7ZH/uKCn6Diag7teScRSpq7eFtQ7z
z9SZgciOtRS662W0QAGrcbhFwA/NWLth4kXOQdf0Rj7Yuo9V+K1ClrEQxbzU9WNe
ARgXr2cAAfqeZriJzBCV++InfTLcLhXbQDW/wu4/HWDfPkFHF8myPhcb1g9tzziw
0z8u7bkpoOy7EV87wUwANFKhJ2Gu8WioNHhGDQIqS/HWRfL2/08=
-----END CERTIFICATE-----
